; Function Attrs: mustprogress uwtable
define void @_ZN2cv10GCPUKernelC2ERKSt8functionIFvRNS_11GCPUContextEEERKS1_IFvRKSt6vectorINS_4util7variantIJNS9_9monostateENS_8GMatDescENS_11GScalarDescENS_10GArrayDescENS_11GOpaqueDescENS_10GFrameDescEEEESaISH_EERKS8_INS_4GArgESaISM_EERSM_RKS8_INS_11GCompileArgESaISS_EEEE(ptr noundef nonnull align 8 dereferenceable(65) initializes((0, 32)) %0, ptr noundef nonnull align 8 dereferenceable(32) %1, ptr noundef nonnull align 8 dereferenceable(32) %2) unnamed_addr #3 align 2 personality ptr @__gxx_personality_v0 {
  %4 = getelementptr inbounds nuw i8, ptr %0, i64 16
  %5 = getelementptr inbounds nuw i8, ptr %0, i64 24
  %6 = getelementptr inbounds nuw i8, ptr %1, i64 16
  tail call void @llvm.memset.p0.i64(ptr noundef nonnull align 8 dereferenceable(32) %0, i8 0, i64 32, i1 false)
  %7 = load ptr, ptr %6, align 8, !tbaa !39
  %.not.i.i.not.i = icmp eq ptr %7, null
  br i1 %.not.i.i.not.i, label %_ZNSt8functionIFvRN2cv11GCPUContextEEEC2ERKS4_.exit, label %8

8:                                                ; preds = %3
  %9 = invoke noundef zeroext i1 %7(ptr noundef nonnull align 8 dereferenceable(32) %0, ptr noundef nonnull align 8 dereferenceable(32) %1, i32 noundef 2)
          to label %10 unwind label %14

10:                                               ; preds = %8
  %11 = getelementptr inbounds nuw i8, ptr %1, i64 24
  %12 = load ptr, ptr %11, align 8, !tbaa !41
  store ptr %12, ptr %5, align 8, !tbaa !41
  %13 = load ptr, ptr %6, align 8, !tbaa !39
  store ptr %13, ptr %4, align 8, !tbaa !39
  br label %_ZNSt8functionIFvRN2cv11GCPUContextEEEC2ERKS4_.exit

14:                                               ; preds = %8
  %15 = landingpad { ptr, i32 }
          cleanup
  %16 = load ptr, ptr %4, align 8, !tbaa !39
  %.not.i.i = icmp eq ptr %16, null
  br i1 %.not.i.i, label %common.resume, label %17

17:                                               ; preds = %14
  %18 = invoke noundef zeroext i1 %16(ptr noundef nonnull align 8 dereferenceable(32) %0, ptr noundef nonnull align 8 dereferenceable(32) %0, i32 noundef 3)
          to label %common.resume unwind label %19

19:                                               ; preds = %17
  %20 = landingpad { ptr, i32 }
          catch ptr null
  %21 = extractvalue { ptr, i32 } %20, 0
  tail call void @__clang_call_terminate(ptr %21) #19
  unreachable

common.resume:                                    ; preds = %45, %.body, %14, %17
  %common.resume.op = phi { ptr, i32 } [ %15, %17 ], [ %15, %14 ], [ %36, %.body ], [ %36, %45 ]
  resume { ptr, i32 } %common.resume.op

_ZNSt8functionIFvRN2cv11GCPUContextEEEC2ERKS4_.exit: ; preds = %3, %10
  %22 = getelementptr inbounds nuw i8, ptr %0, i64 32
  %23 = getelementptr inbounds nuw i8, ptr %0, i64 48
  %24 = getelementptr inbounds nuw i8, ptr %0, i64 56
  %25 = getelementptr inbounds nuw i8, ptr %2, i64 16
  tail call void @llvm.memset.p0.i64(ptr noundef nonnull align 8 dereferenceable(32) %22, i8 0, i64 32, i1 false)
  %26 = load ptr, ptr %25, align 8, !tbaa !39
  %.not.i.i.not.i4 = icmp eq ptr %26, null
  br i1 %.not.i.i.not.i4, label %_ZNSt8functionIFvRKSt6vectorIN2cv4util7variantIJNS2_9monostateENS1_8GMatDescENS1_11GScalarDescENS1_10GArrayDescENS1_11GOpaqueDescENS1_10GFrameDescEEEESaISA_EERKS0_INS1_4GArgESaISF_EERSF_RKS0_INS1_11GCompileArgESaISL_EEEEC2ERKSR_.exit, label %27

27:                                               ; preds = %_ZNSt8functionIFvRN2cv11GCPUContextEEEC2ERKS4_.exit
  %28 = invoke noundef zeroext i1 %26(ptr noundef nonnull align 8 dereferenceable(32) %22, ptr noundef nonnull align 8 dereferenceable(32) %2, i32 noundef 2)
          to label %29 unwind label %35

29:                                               ; preds = %27
  %30 = getelementptr inbounds nuw i8, ptr %2, i64 24
  %31 = load ptr, ptr %30, align 8, !tbaa !43
  store ptr %31, ptr %24, align 8, !tbaa !43
  %32 = load ptr, ptr %25, align 8, !tbaa !39
  store ptr %32, ptr %23, align 8, !tbaa !39
  %33 = icmp ne ptr %32, null
  %34 = zext i1 %33 to i8
  br label %_ZNSt8functionIFvRKSt6vectorIN2cv4util7variantIJNS2_9monostateENS1_8GMatDescENS1_11GScalarDescENS1_10GArrayDescENS1_11GOpaqueDescENS1_10GFrameDescEEEESaISA_EERKS0_INS1_4GArgESaISF_EERSF_RKS0_INS1_11GCompileArgESaISL_EEEEC2ERKSR_.exit

35:                                               ; preds = %27
  %36 = landingpad { ptr, i32 }
          cleanup
  %37 = load ptr, ptr %23, align 8, !tbaa !39
  %.not.i.i5 = icmp eq ptr %37, null
  br i1 %.not.i.i5, label %.body, label %38

38:                                               ; preds = %35
  %39 = invoke noundef zeroext i1 %37(ptr noundef nonnull align 8 dereferenceable(32) %22, ptr noundef nonnull align 8 dereferenceable(32) %22, i32 noundef 3)
          to label %.body unwind label %40

40:                                               ; preds = %38
  %41 = landingpad { ptr, i32 }
          catch ptr null
  %42 = extractvalue { ptr, i32 } %41, 0
  tail call void @__clang_call_terminate(ptr %42) #19
  unreachable

_ZNSt8functionIFvRKSt6vectorIN2cv4util7variantIJNS2_9monostateENS1_8GMatDescENS1_11GScalarDescENS1_10GArrayDescENS1_11GOpaqueDescENS1_10GFrameDescEEEESaISA_EERKS0_INS1_4GArgESaISF_EERSF_RKS0_INS1_11GCompileArgESaISL_EEEEC2ERKSR_.exit: ; preds = %29, %_ZNSt8functionIFvRN2cv11GCPUContextEEEC2ERKS4_.exit
  %.not.i.i.i = phi i8 [ %34, %29 ], [ 0, %_ZNSt8functionIFvRN2cv11GCPUContextEEEC2ERKS4_.exit ]
  %43 = getelementptr inbounds nuw i8, ptr %0, i64 64
  store i8 %.not.i.i.i, ptr %43, align 8, !tbaa !45
  ret void

.body:                                            ; preds = %35, %38
  %44 = load ptr, ptr %4, align 8, !tbaa !39
  %.not.i = icmp eq ptr %44, null
  br i1 %.not.i, label %common.resume, label %45

45:                                               ; preds = %.body
  %46 = invoke noundef zeroext i1 %44(ptr noundef nonnull align 8 dereferenceable(32) %0, ptr noundef nonnull align 8 dereferenceable(32) %0, i32 noundef 3)
          to label %common.resume unwind label %47

47:                                               ; preds = %45
  %48 = landingpad { ptr, i32 }
          catch ptr null
  %49 = extractvalue { ptr, i32 } %48, 0
  tail call void @__clang_call_terminate(ptr %49) #19
  unreachable
}